target datalayout = "e-m:e-p270:32:32-p271:32:32-p272:64:64-i64:64-i128:128-f80:128-n8:16:32:64-S128"
target triple = "x86_64-pc-linux-gnu"

%"class.std::__cxx11::basic_string" = type { %"struct.std::__cxx11::basic_string<char>::_Alloc_hider", i64, %union.anon }
%"struct.std::__cxx11::basic_string<char>::_Alloc_hider" = type { ptr }
%union.anon = type { i64, [8 x i8] }
%"struct.Yosys::LibertyExpression" = type { i32, %"class.std::__cxx11::basic_string", %"class.std::vector.12" }
%"class.std::vector.12" = type { %"struct.std::_Vector_base.13" }
%"struct.std::_Vector_base.13" = type { %"struct.std::_Vector_base<Yosys::LibertyExpression, std::allocator<Yosys::LibertyExpression>>::_Vector_impl" }
%"struct.std::_Vector_base<Yosys::LibertyExpression, std::allocator<Yosys::LibertyExpression>>::_Vector_impl" = type { %"struct.std::_Vector_base<Yosys::LibertyExpression, std::allocator<Yosys::LibertyExpression>>::_Vector_impl_data" }
%"struct.std::_Vector_base<Yosys::LibertyExpression, std::allocator<Yosys::LibertyExpression>>::_Vector_impl_data" = type { ptr, ptr, ptr }
%"class.__gnu_cxx::__normal_iterator.30" = type { ptr }

; Function Attrs: mustprogress nounwind uwtable
define linkonce_odr noundef nonnull align 8 dereferenceable(8) ptr @_ZNK9__gnu_cxx17__normal_iteratorIPN5Yosys17LibertyExpressionESt6vectorIS2_SaIS2_EEE4baseEv(ptr noundef nonnull align 8 dereferenceable(8) %0) #4 comdat align 2 {
  %2 = alloca ptr, align 8
  store ptr %0, ptr %2, align 8, !tbaa !73
  %3 = load ptr, ptr %2, align 8
  %4 = getelementptr inbounds nuw %"class.__gnu_cxx::__normal_iterator.30", ptr %3, i32 0, i32 0
  ret ptr %4
}

; Function Attrs: mustprogress nounwind uwtable
define linkonce_odr void @_ZN9__gnu_cxx17__normal_iteratorIPN5Yosys17LibertyExpressionESt6vectorIS2_SaIS2_EEEC2ERKS3_(ptr noundef nonnull align 8 dereferenceable(8) %0, ptr noundef nonnull align 8 dereferenceable(8) %1) unnamed_addr #4 comdat align 2 {
  %3 = alloca ptr, align 8
  %4 = alloca ptr, align 8
  store ptr %0, ptr %3, align 8, !tbaa !73
  store ptr %1, ptr %4, align 8, !tbaa !276
  %5 = load ptr, ptr %3, align 8
  %6 = getelementptr inbounds nuw %"class.__gnu_cxx::__normal_iterator.30", ptr %5, i32 0, i32 0
  %7 = load ptr, ptr %4, align 8, !tbaa !276
  %8 = load ptr, ptr %7, align 8, !tbaa !66
  store ptr %8, ptr %6, align 8, !tbaa !75
  ret void
}

; Function Attrs: mustprogress nounwind uwtable
define linkonce_odr noundef nonnull align 8 dereferenceable(64) ptr @_ZNSt6vectorIN5Yosys17LibertyExpressionESaIS1_EEixEm(ptr noundef nonnull align 8 dereferenceable(24) %0, i64 noundef %1) #4 comdat align 2 {
  %3 = alloca ptr, align 8
  %4 = alloca i64, align 8
  store ptr %0, ptr %3, align 8, !tbaa !67
  store i64 %1, ptr %4, align 8, !tbaa !42
  %5 = load ptr, ptr %3, align 8
  %6 = getelementptr inbounds nuw %"struct.std::_Vector_base.13", ptr %5, i32 0, i32 0
  %7 = getelementptr inbounds nuw %"struct.std::_Vector_base<Yosys::LibertyExpression, std::allocator<Yosys::LibertyExpression>>::_Vector_impl_data", ptr %6, i32 0, i32 0
  %8 = load ptr, ptr %7, align 8, !tbaa !79
  %9 = load i64, ptr %4, align 8, !tbaa !42
  %10 = getelementptr inbounds nuw %"struct.Yosys::LibertyExpression", ptr %8, i64 %9
  ret ptr %10
}

; Function Attrs: mustprogress nounwind uwtable
define linkonce_odr noundef nonnull align 8 dereferenceable(8) ptr @_ZN9__gnu_cxx17__normal_iteratorIPN5Yosys17LibertyExpressionESt6vectorIS2_SaIS2_EEEppEv(ptr noundef nonnull align 8 dereferenceable(8) %0) #4 comdat align 2 {
  %2 = alloca ptr, align 8
  store ptr %0, ptr %2, align 8, !tbaa !73
  %3 = load ptr, ptr %2, align 8
  %4 = getelementptr inbounds nuw %"class.__gnu_cxx::__normal_iterator.30", ptr %3, i32 0, i32 0
  %5 = load ptr, ptr %4, align 8, !tbaa !75
  %6 = getelementptr inbounds nuw %"struct.Yosys::LibertyExpression", ptr %5, i32 1
  store ptr %6, ptr %4, align 8, !tbaa !75
  ret ptr %3
}

; Function Attrs: mustprogress nounwind uwtable
define linkonce_odr noundef nonnull align 8 dereferenceable(64) ptr @_ZNK9__gnu_cxx17__normal_iteratorIPN5Yosys17LibertyExpressionESt6vectorIS2_SaIS2_EEEdeEv(ptr noundef nonnull align 8 dereferenceable(8) %0) #4 comdat align 2 {
  %2 = alloca ptr, align 8
  store ptr %0, ptr %2, align 8, !tbaa !73
  %3 = load ptr, ptr %2, align 8
  %4 = getelementptr inbounds nuw %"class.__gnu_cxx::__normal_iterator.30", ptr %3, i32 0, i32 0
  %5 = load ptr, ptr %4, align 8, !tbaa !75
  ret ptr %5
}

; Function Attrs: inlinehint mustprogress nounwind uwtable
define linkonce_odr noundef zeroext i1 @_ZN9__gnu_cxxneIPN5Yosys17LibertyExpressionESt6vectorIS2_SaIS2_EEEEbRKNS_17__normal_iteratorIT_T0_EESC_(ptr noundef nonnull align 8 dereferenceable(8) %0, ptr noundef nonnull align 8 dereferenceable(8) %1) #6 comdat {
  %3 = alloca ptr, align 8
  %4 = alloca ptr, align 8
  store ptr %0, ptr %3, align 8, !tbaa !73
  store ptr %1, ptr %4, align 8, !tbaa !73
  %5 = load ptr, ptr %3, align 8, !tbaa !73
  %6 = call noundef nonnull align 8 dereferenceable(8) ptr @_ZNK9__gnu_cxx17__normal_iteratorIPN5Yosys17LibertyExpressionESt6vectorIS2_SaIS2_EEE4baseEv(ptr noundef nonnull align 8 dereferenceable(8) %5) #3
  %7 = load ptr, ptr %6, align 8, !tbaa !66
  %8 = load ptr, ptr %4, align 8, !tbaa !73
  %9 = call noundef nonnull align 8 dereferenceable(8) ptr @_ZNK9__gnu_cxx17__normal_iteratorIPN5Yosys17LibertyExpressionESt6vectorIS2_SaIS2_EEE4baseEv(ptr noundef nonnull align 8 dereferenceable(8) %8) #3
  %10 = load ptr, ptr %9, align 8, !tbaa !66
  %11 = icmp ne ptr %7, %10
  ret i1 %11
}

; Function Attrs: mustprogress nounwind uwtable
define linkonce_odr ptr @_ZNSt6vectorIN5Yosys17LibertyExpressionESaIS1_EE3endEv(ptr noundef nonnull align 8 dereferenceable(24) %0) #4 comdat align 2 {
  %2 = alloca %"class.__gnu_cxx::__normal_iterator.30", align 8
  %3 = alloca ptr, align 8
  store ptr %0, ptr %3, align 8, !tbaa !67
  %4 = load ptr, ptr %3, align 8
  %5 = getelementptr inbounds nuw %"struct.std::_Vector_base.13", ptr %4, i32 0, i32 0
  %6 = getelementptr inbounds nuw %"struct.std::_Vector_base<Yosys::LibertyExpression, std::allocator<Yosys::LibertyExpression>>::_Vector_impl_data", ptr %5, i32 0, i32 1
  call void @_ZN9__gnu_cxx17__normal_iteratorIPN5Yosys17LibertyExpressionESt6vectorIS2_SaIS2_EEEC2ERKS3_(ptr noundef nonnull align 8 dereferenceable(8) %2, ptr noundef nonnull align 8 dereferenceable(8) %6) #3
  %7 = getelementptr inbounds nuw %"class.__gnu_cxx::__normal_iterator.30", ptr %2, i32 0, i32 0
  %8 = load ptr, ptr %7, align 8
  ret ptr %8
}

; Function Attrs: mustprogress nounwind uwtable
define linkonce_odr ptr @_ZNSt6vectorIN5Yosys17LibertyExpressionESaIS1_EE5beginEv(ptr noundef nonnull align 8 dereferenceable(24) %0) #4 comdat align 2 {
  %2 = alloca %"class.__gnu_cxx::__normal_iterator.30", align 8
  %3 = alloca ptr, align 8
  store ptr %0, ptr %3, align 8, !tbaa !67
  %4 = load ptr, ptr %3, align 8
  %5 = getelementptr inbounds nuw %"struct.std::_Vector_base.13", ptr %4, i32 0, i32 0
  %6 = getelementptr inbounds nuw %"struct.std::_Vector_base<Yosys::LibertyExpression, std::allocator<Yosys::LibertyExpression>>::_Vector_impl_data", ptr %5, i32 0, i32 0
  call void @_ZN9__gnu_cxx17__normal_iteratorIPN5Yosys17LibertyExpressionESt6vectorIS2_SaIS2_EEEC2ERKS3_(ptr noundef nonnull align 8 dereferenceable(8) %2, ptr noundef nonnull align 8 dereferenceable(8) %6) #3
  %7 = getelementptr inbounds nuw %"class.__gnu_cxx::__normal_iterator.30", ptr %2, i32 0, i32 0
  %8 = load ptr, ptr %7, align 8
  ret ptr %8
}

; Function Attrs: mustprogress uwtable
define noundef zeroext i1 @_ZN5Yosys17LibertyExpression4evalERNS_7hashlib4dictINSt7__cxx1112basic_stringIcSt11char_traitsIcESaIcEEEbNS1_8hash_opsIS8_EEEE(ptr noundef nonnull align 8 dereferenceable(64) %0, ptr noundef nonnull align 8 dereferenceable(49) %1) #8 align 2 {
  %3 = alloca i1, align 1
  %4 = alloca ptr, align 8
  %5 = alloca ptr, align 8
  %6 = alloca i8, align 1
  %7 = alloca ptr, align 8
  %8 = alloca %"class.__gnu_cxx::__normal_iterator.30", align 8
  %9 = alloca %"class.__gnu_cxx::__normal_iterator.30", align 8
  %10 = alloca ptr, align 8
  %11 = alloca i32, align 4
  %12 = alloca ptr, align 8
  %13 = alloca %"class.__gnu_cxx::__normal_iterator.30", align 8
  %14 = alloca %"class.__gnu_cxx::__normal_iterator.30", align 8
  %15 = alloca ptr, align 8
  %16 = alloca ptr, align 8
  %17 = alloca %"class.__gnu_cxx::__normal_iterator.30", align 8
  %18 = alloca %"class.__gnu_cxx::__normal_iterator.30", align 8
  %19 = alloca ptr, align 8
  store ptr %0, ptr %4, align 8, !tbaa !66
  store ptr %1, ptr %5, align 8, !tbaa !77
  %20 = load ptr, ptr %4, align 8
  call void @llvm.lifetime.start.p0(i64 1, ptr %6) #3
  store i8 0, ptr %6, align 1, !tbaa !38
  %21 = getelementptr inbounds nuw %"struct.Yosys::LibertyExpression", ptr %20, i32 0, i32 0
  %22 = load i32, ptr %21, align 8, !tbaa !55
  switch i32 %22, label %126 [
    i32 0, label %23
    i32 1, label %51
    i32 2, label %79
    i32 3, label %88
    i32 4, label %116
    i32 5, label %122
  ]

23:                                               ; preds = %2
  store i8 1, ptr %6, align 1, !tbaa !38
  call void @llvm.lifetime.start.p0(i64 8, ptr %7) #3
  %24 = getelementptr inbounds nuw %"struct.Yosys::LibertyExpression", ptr %20, i32 0, i32 2
  store ptr %24, ptr %7, align 8, !tbaa !67
  call void @llvm.lifetime.start.p0(i64 8, ptr %8) #3
  %25 = load ptr, ptr %7, align 8, !tbaa !67
  %26 = call ptr @_ZNSt6vectorIN5Yosys17LibertyExpressionESaIS1_EE5beginEv(ptr noundef nonnull align 8 dereferenceable(24) %25) #3
  %27 = getelementptr inbounds nuw %"class.__gnu_cxx::__normal_iterator.30", ptr %8, i32 0, i32 0
  store ptr %26, ptr %27, align 8
  call void @llvm.lifetime.start.p0(i64 8, ptr %9) #3
  %28 = load ptr, ptr %7, align 8, !tbaa !67
  %29 = call ptr @_ZNSt6vectorIN5Yosys17LibertyExpressionESaIS1_EE3endEv(ptr noundef nonnull align 8 dereferenceable(24) %28) #3
  %30 = getelementptr inbounds nuw %"class.__gnu_cxx::__normal_iterator.30", ptr %9, i32 0, i32 0
  store ptr %29, ptr %30, align 8
  br label %31

31:                                               ; preds = %46, %23
  %32 = call noundef zeroext i1 @_ZN9__gnu_cxxneIPN5Yosys17LibertyExpressionESt6vectorIS2_SaIS2_EEEEbRKNS_17__normal_iteratorIT_T0_EESC_(ptr noundef nonnull align 8 dereferenceable(8) %8, ptr noundef nonnull align 8 dereferenceable(8) %9) #3
  br i1 %32, label %34, label %33

33:                                               ; preds = %31
  call void @llvm.lifetime.end.p0(i64 8, ptr %9) #3
  call void @llvm.lifetime.end.p0(i64 8, ptr %8) #3
  call void @llvm.lifetime.end.p0(i64 8, ptr %7) #3
  br label %48

34:                                               ; preds = %31
  call void @llvm.lifetime.start.p0(i64 8, ptr %10) #3
  %35 = call noundef nonnull align 8 dereferenceable(64) ptr @_ZNK9__gnu_cxx17__normal_iteratorIPN5Yosys17LibertyExpressionESt6vectorIS2_SaIS2_EEEdeEv(ptr noundef nonnull align 8 dereferenceable(8) %8) #3
  store ptr %35, ptr %10, align 8, !tbaa !66
  %36 = load ptr, ptr %10, align 8, !tbaa !66
  %37 = load ptr, ptr %5, align 8, !tbaa !77
  %38 = call noundef zeroext i1 @_ZN5Yosys17LibertyExpression4evalERNS_7hashlib4dictINSt7__cxx1112basic_stringIcSt11char_traitsIcESaIcEEEbNS1_8hash_opsIS8_EEEE(ptr noundef nonnull align 8 dereferenceable(64) %36, ptr noundef nonnull align 8 dereferenceable(49) %37)
  %39 = zext i1 %38 to i32
  %40 = load i8, ptr %6, align 1, !tbaa !38, !range !40, !noundef !41
  %41 = trunc i8 %40 to i1
  %42 = zext i1 %41 to i32
  %43 = and i32 %42, %39
  %44 = icmp ne i32 %43, 0
  %45 = zext i1 %44 to i8
  store i8 %45, ptr %6, align 1, !tbaa !38
  call void @llvm.lifetime.end.p0(i64 8, ptr %10) #3
  br label %46

46:                                               ; preds = %34
  %47 = call noundef nonnull align 8 dereferenceable(8) ptr @_ZN9__gnu_cxx17__normal_iteratorIPN5Yosys17LibertyExpressionESt6vectorIS2_SaIS2_EEEppEv(ptr noundef nonnull align 8 dereferenceable(8) %8) #3
  br label %31

48:                                               ; preds = %33
  %49 = load i8, ptr %6, align 1, !tbaa !38, !range !40, !noundef !41
  %50 = trunc i8 %49 to i1
  store i1 %50, ptr %3, align 1
  store i32 1, ptr %11, align 4
  br label %127

51:                                               ; preds = %2
  store i8 0, ptr %6, align 1, !tbaa !38
  call void @llvm.lifetime.start.p0(i64 8, ptr %12) #3
  %52 = getelementptr inbounds nuw %"struct.Yosys::LibertyExpression", ptr %20, i32 0, i32 2
  store ptr %52, ptr %12, align 8, !tbaa !67
  call void @llvm.lifetime.start.p0(i64 8, ptr %13) #3
  %53 = load ptr, ptr %12, align 8, !tbaa !67
  %54 = call ptr @_ZNSt6vectorIN5Yosys17LibertyExpressionESaIS1_EE5beginEv(ptr noundef nonnull align 8 dereferenceable(24) %53) #3
  %55 = getelementptr inbounds nuw %"class.__gnu_cxx::__normal_iterator.30", ptr %13, i32 0, i32 0
  store ptr %54, ptr %55, align 8
  call void @llvm.lifetime.start.p0(i64 8, ptr %14) #3
  %56 = load ptr, ptr %12, align 8, !tbaa !67
  %57 = call ptr @_ZNSt6vectorIN5Yosys17LibertyExpressionESaIS1_EE3endEv(ptr noundef nonnull align 8 dereferenceable(24) %56) #3
  %58 = getelementptr inbounds nuw %"class.__gnu_cxx::__normal_iterator.30", ptr %14, i32 0, i32 0
  store ptr %57, ptr %58, align 8
  br label %59

59:                                               ; preds = %74, %51
  %60 = call noundef zeroext i1 @_ZN9__gnu_cxxneIPN5Yosys17LibertyExpressionESt6vectorIS2_SaIS2_EEEEbRKNS_17__normal_iteratorIT_T0_EESC_(ptr noundef nonnull align 8 dereferenceable(8) %13, ptr noundef nonnull align 8 dereferenceable(8) %14) #3
  br i1 %60, label %62, label %61

61:                                               ; preds = %59
  store i32 5, ptr %11, align 4
  call void @llvm.lifetime.end.p0(i64 8, ptr %14) #3
  call void @llvm.lifetime.end.p0(i64 8, ptr %13) #3
  call void @llvm.lifetime.end.p0(i64 8, ptr %12) #3
  br label %76

62:                                               ; preds = %59
  call void @llvm.lifetime.start.p0(i64 8, ptr %15) #3
  %63 = call noundef nonnull align 8 dereferenceable(64) ptr @_ZNK9__gnu_cxx17__normal_iteratorIPN5Yosys17LibertyExpressionESt6vectorIS2_SaIS2_EEEdeEv(ptr noundef nonnull align 8 dereferenceable(8) %13) #3
  store ptr %63, ptr %15, align 8, !tbaa !66
  %64 = load ptr, ptr %15, align 8, !tbaa !66
  %65 = load ptr, ptr %5, align 8, !tbaa !77
  %66 = call noundef zeroext i1 @_ZN5Yosys17LibertyExpression4evalERNS_7hashlib4dictINSt7__cxx1112basic_stringIcSt11char_traitsIcESaIcEEEbNS1_8hash_opsIS8_EEEE(ptr noundef nonnull align 8 dereferenceable(64) %64, ptr noundef nonnull align 8 dereferenceable(49) %65)
  %67 = zext i1 %66 to i32
  %68 = load i8, ptr %6, align 1, !tbaa !38, !range !40, !noundef !41
  %69 = trunc i8 %68 to i1
  %70 = zext i1 %69 to i32
  %71 = or i32 %70, %67
  %72 = icmp ne i32 %71, 0
  %73 = zext i1 %72 to i8
  store i8 %73, ptr %6, align 1, !tbaa !38
  call void @llvm.lifetime.end.p0(i64 8, ptr %15) #3
  br label %74

74:                                               ; preds = %62
  %75 = call noundef nonnull align 8 dereferenceable(8) ptr @_ZN9__gnu_cxx17__normal_iteratorIPN5Yosys17LibertyExpressionESt6vectorIS2_SaIS2_EEEppEv(ptr noundef nonnull align 8 dereferenceable(8) %13) #3
  br label %59

76:                                               ; preds = %61
  %77 = load i8, ptr %6, align 1, !tbaa !38, !range !40, !noundef !41
  %78 = trunc i8 %77 to i1
  store i1 %78, ptr %3, align 1
  store i32 1, ptr %11, align 4
  br label %127

79:                                               ; preds = %2
  br label %80

80:                                               ; preds = %79
  br label %81

81:                                               ; preds = %80
  br label %82

82:                                               ; preds = %81
  %83 = getelementptr inbounds nuw %"struct.Yosys::LibertyExpression", ptr %20, i32 0, i32 2
  %84 = call noundef nonnull align 8 dereferenceable(64) ptr @_ZNSt6vectorIN5Yosys17LibertyExpressionESaIS1_EEixEm(ptr noundef nonnull align 8 dereferenceable(24) %83, i64 noundef 0) #3
  %85 = load ptr, ptr %5, align 8, !tbaa !77
  %86 = call noundef zeroext i1 @_ZN5Yosys17LibertyExpression4evalERNS_7hashlib4dictINSt7__cxx1112basic_stringIcSt11char_traitsIcESaIcEEEbNS1_8hash_opsIS8_EEEE(ptr noundef nonnull align 8 dereferenceable(64) %84, ptr noundef nonnull align 8 dereferenceable(49) %85)
  %87 = xor i1 %86, true
  store i1 %87, ptr %3, align 1
  store i32 1, ptr %11, align 4
  br label %127

88:                                               ; preds = %2
  store i8 0, ptr %6, align 1, !tbaa !38
  call void @llvm.lifetime.start.p0(i64 8, ptr %16) #3
  %89 = getelementptr inbounds nuw %"struct.Yosys::LibertyExpression", ptr %20, i32 0, i32 2
  store ptr %89, ptr %16, align 8, !tbaa !67
  call void @llvm.lifetime.start.p0(i64 8, ptr %17) #3
  %90 = load ptr, ptr %16, align 8, !tbaa !67
  %91 = call ptr @_ZNSt6vectorIN5Yosys17LibertyExpressionESaIS1_EE5beginEv(ptr noundef nonnull align 8 dereferenceable(24) %90) #3
  %92 = getelementptr inbounds nuw %"class.__gnu_cxx::__normal_iterator.30", ptr %17, i32 0, i32 0
  store ptr %91, ptr %92, align 8
  call void @llvm.lifetime.start.p0(i64 8, ptr %18) #3
  %93 = load ptr, ptr %16, align 8, !tbaa !67
  %94 = call ptr @_ZNSt6vectorIN5Yosys17LibertyExpressionESaIS1_EE3endEv(ptr noundef nonnull align 8 dereferenceable(24) %93) #3
  %95 = getelementptr inbounds nuw %"class.__gnu_cxx::__normal_iterator.30", ptr %18, i32 0, i32 0
  store ptr %94, ptr %95, align 8
  br label %96

96:                                               ; preds = %111, %88
  %97 = call noundef zeroext i1 @_ZN9__gnu_cxxneIPN5Yosys17LibertyExpressionESt6vectorIS2_SaIS2_EEEEbRKNS_17__normal_iteratorIT_T0_EESC_(ptr noundef nonnull align 8 dereferenceable(8) %17, ptr noundef nonnull align 8 dereferenceable(8) %18) #3
  br i1 %97, label %99, label %98

98:                                               ; preds = %96
  store i32 9, ptr %11, align 4
  call void @llvm.lifetime.end.p0(i64 8, ptr %18) #3
  call void @llvm.lifetime.end.p0(i64 8, ptr %17) #3
  call void @llvm.lifetime.end.p0(i64 8, ptr %16) #3
  br label %113

99:                                               ; preds = %96
  call void @llvm.lifetime.start.p0(i64 8, ptr %19) #3
  %100 = call noundef nonnull align 8 dereferenceable(64) ptr @_ZNK9__gnu_cxx17__normal_iteratorIPN5Yosys17LibertyExpressionESt6vectorIS2_SaIS2_EEEdeEv(ptr noundef nonnull align 8 dereferenceable(8) %17) #3
  store ptr %100, ptr %19, align 8, !tbaa !66
  %101 = load ptr, ptr %19, align 8, !tbaa !66
  %102 = load ptr, ptr %5, align 8, !tbaa !77
  %103 = call noundef zeroext i1 @_ZN5Yosys17LibertyExpression4evalERNS_7hashlib4dictINSt7__cxx1112basic_stringIcSt11char_traitsIcESaIcEEEbNS1_8hash_opsIS8_EEEE(ptr noundef nonnull align 8 dereferenceable(64) %101, ptr noundef nonnull align 8 dereferenceable(49) %102)
  %104 = zext i1 %103 to i32
  %105 = load i8, ptr %6, align 1, !tbaa !38, !range !40, !noundef !41
  %106 = trunc i8 %105 to i1
  %107 = zext i1 %106 to i32
  %108 = xor i32 %107, %104
  %109 = icmp ne i32 %108, 0
  %110 = zext i1 %109 to i8
  store i8 %110, ptr %6, align 1, !tbaa !38
  call void @llvm.lifetime.end.p0(i64 8, ptr %19) #3
  br label %111

111:                                              ; preds = %99
  %112 = call noundef nonnull align 8 dereferenceable(8) ptr @_ZN9__gnu_cxx17__normal_iteratorIPN5Yosys17LibertyExpressionESt6vectorIS2_SaIS2_EEEppEv(ptr noundef nonnull align 8 dereferenceable(8) %17) #3
  br label %96

113:                                              ; preds = %98
  %114 = load i8, ptr %6, align 1, !tbaa !38, !range !40, !noundef !41
  %115 = trunc i8 %114 to i1
  store i1 %115, ptr %3, align 1
  store i32 1, ptr %11, align 4
  br label %127

116:                                              ; preds = %2
  %117 = load ptr, ptr %5, align 8, !tbaa !77
  %118 = getelementptr inbounds nuw %"struct.Yosys::LibertyExpression", ptr %20, i32 0, i32 1
  %119 = call noundef nonnull align 1 dereferenceable(1) ptr @_ZN5Yosys7hashlib4dictINSt7__cxx1112basic_stringIcSt11char_traitsIcESaIcEEEbNS0_8hash_opsIS7_EEE2atERKS7_(ptr noundef nonnull align 8 dereferenceable(49) %117, ptr noundef nonnull align 8 dereferenceable(32) %118)
  %120 = load i8, ptr %119, align 1, !tbaa !38, !range !40, !noundef !41
  %121 = trunc i8 %120 to i1
  store i1 %121, ptr %3, align 1
  store i32 1, ptr %11, align 4
  br label %127

122:                                              ; preds = %2
  br label %123

123:                                              ; preds = %122
  br label %124

124:                                              ; preds = %123
  br label %125

125:                                              ; preds = %124
  br label %126

126:                                              ; preds = %125, %2
  store i1 false, ptr %3, align 1
  store i32 1, ptr %11, align 4
  br label %127

127:                                              ; preds = %126, %116, %113, %82, %76, %48
  call void @llvm.lifetime.end.p0(i64 1, ptr %6) #3
  %128 = load i1, ptr %3, align 1
  ret i1 %128
}