; Function Attrs: mustprogress uwtable
define noundef zeroext i1 @_ZN5Yosys17LibertyExpression4evalERNS_7hashlib4dictINSt7__cxx1112basic_stringIcSt11char_traitsIcESaIcEEEbNS1_8hash_opsIS8_EEEE(ptr noundef nonnull align 8 dereferenceable(64) %0, ptr noundef nonnull align 8 dereferenceable(49) %1) local_unnamed_addr #7 align 2 {
  br label %tailrecurse

tailrecurse:                                      ; preds = %20, %2
  %accumulator.tr = phi i1 [ false, %2 ], [ %23, %20 ]
  %.tr = phi ptr [ %0, %2 ], [ %22, %20 ]
  %3 = load i32, ptr %.tr, align 8, !tbaa !53
  switch i32 %3, label %.loopexit [
    i32 0, label %4
    i32 1, label %12
    i32 2, label %20
    i32 3, label %24
    i32 4, label %32
  ]

4:                                                ; preds = %tailrecurse
  %5 = getelementptr inbounds nuw i8, ptr %.tr, i64 40
  %6 = load ptr, ptr %5, align 8, !tbaa !85
  %7 = getelementptr inbounds nuw i8, ptr %.tr, i64 48
  %8 = load ptr, ptr %7, align 8, !tbaa !85
  %.not3456 = icmp eq ptr %6, %8
  br i1 %.not3456, label %.loopexit, label %.lr.ph59

.lr.ph59:                                         ; preds = %4, %.lr.ph59
  %.02158 = phi i1 [ %10, %.lr.ph59 ], [ true, %4 ]
  %.sroa.030.057 = phi ptr [ %11, %.lr.ph59 ], [ %6, %4 ]
  %9 = tail call noundef zeroext i1 @_ZN5Yosys17LibertyExpression4evalERNS_7hashlib4dictINSt7__cxx1112basic_stringIcSt11char_traitsIcESaIcEEEbNS1_8hash_opsIS8_EEEE(ptr noundef nonnull align 8 dereferenceable(64) %.sroa.030.057, ptr noundef nonnull align 8 dereferenceable(49) %1)
  %10 = and i1 %.02158, %9
  %11 = getelementptr inbounds nuw i8, ptr %.sroa.030.057, i64 64
  %.not34 = icmp eq ptr %11, %8
  br i1 %.not34, label %.loopexit, label %.lr.ph59

12:                                               ; preds = %tailrecurse
  %13 = getelementptr inbounds nuw i8, ptr %.tr, i64 40
  %14 = load ptr, ptr %13, align 8, !tbaa !85
  %15 = getelementptr inbounds nuw i8, ptr %.tr, i64 48
  %16 = load ptr, ptr %15, align 8, !tbaa !85
  %.not3351 = icmp eq ptr %14, %16
  br i1 %.not3351, label %.loopexit, label %.lr.ph54

.lr.ph54:                                         ; preds = %12, %.lr.ph54
  %.153 = phi i1 [ %18, %.lr.ph54 ], [ false, %12 ]
  %.sroa.026.052 = phi ptr [ %19, %.lr.ph54 ], [ %14, %12 ]
  %17 = tail call noundef zeroext i1 @_ZN5Yosys17LibertyExpression4evalERNS_7hashlib4dictINSt7__cxx1112basic_stringIcSt11char_traitsIcESaIcEEEbNS1_8hash_opsIS8_EEEE(ptr noundef nonnull align 8 dereferenceable(64) %.sroa.026.052, ptr noundef nonnull align 8 dereferenceable(49) %1)
  %18 = or i1 %.153, %17
  %19 = getelementptr inbounds nuw i8, ptr %.sroa.026.052, i64 64
  %.not33 = icmp eq ptr %19, %16
  br i1 %.not33, label %.loopexit, label %.lr.ph54

20:                                               ; preds = %tailrecurse
  %21 = getelementptr inbounds nuw i8, ptr %.tr, i64 40
  %22 = load ptr, ptr %21, align 8, !tbaa !62
  %23 = xor i1 %accumulator.tr, true
  br label %tailrecurse

24:                                               ; preds = %tailrecurse
  %25 = getelementptr inbounds nuw i8, ptr %.tr, i64 40
  %26 = load ptr, ptr %25, align 8, !tbaa !85
  %27 = getelementptr inbounds nuw i8, ptr %.tr, i64 48
  %28 = load ptr, ptr %27, align 8, !tbaa !85
  %.not48 = icmp eq ptr %26, %28
  br i1 %.not48, label %.loopexit, label %.lr.ph

.lr.ph:                                           ; preds = %24, %.lr.ph
  %.250 = phi i1 [ %30, %.lr.ph ], [ false, %24 ]
  %.sroa.022.049 = phi ptr [ %31, %.lr.ph ], [ %26, %24 ]
  %29 = tail call noundef zeroext i1 @_ZN5Yosys17LibertyExpression4evalERNS_7hashlib4dictINSt7__cxx1112basic_stringIcSt11char_traitsIcESaIcEEEbNS1_8hash_opsIS8_EEEE(ptr noundef nonnull align 8 dereferenceable(64) %.sroa.022.049, ptr noundef nonnull align 8 dereferenceable(49) %1)
  %30 = xor i1 %.250, %29
  %31 = getelementptr inbounds nuw i8, ptr %.sroa.022.049, i64 64
  %.not = icmp eq ptr %31, %28
  br i1 %.not, label %.loopexit, label %.lr.ph

32:                                               ; preds = %tailrecurse
  %33 = getelementptr inbounds nuw i8, ptr %.tr, i64 8
  %34 = tail call noundef nonnull align 1 dereferenceable(1) ptr @_ZN5Yosys7hashlib4dictINSt7__cxx1112basic_stringIcSt11char_traitsIcESaIcEEEbNS0_8hash_opsIS7_EEE2atERKS7_(ptr noundef nonnull align 8 dereferenceable(49) %1, ptr noundef nonnull align 8 dereferenceable(32) %33)
  %35 = load i8, ptr %34, align 1, !tbaa !86, !range !88, !noundef !89
  %36 = trunc nuw i8 %35 to i1
  br label %.loopexit

.loopexit:                                        ; preds = %tailrecurse, %.lr.ph, %.lr.ph54, %.lr.ph59, %24, %12, %4, %32
  %.0 = phi i1 [ %36, %32 ], [ true, %4 ], [ false, %12 ], [ false, %24 ], [ %10, %.lr.ph59 ], [ %18, %.lr.ph54 ], [ %30, %.lr.ph ], [ false, %tailrecurse ]
  %accumulator.ret.tr = xor i1 %accumulator.tr, %.0
  ret i1 %accumulator.ret.tr
}